target datalayout = "e-m:e-p270:32:32-p271:32:32-p272:64:64-i64:64-i128:128-f80:128-n8:16:32:64-S128"
target triple = "x86_64-pc-linux-gnu"

%struct.lean_object = type { i32, i32 }
%struct.lean_ctor_object = type { %struct.lean_object, [0 x ptr] }

@_G_initialized = internal global i8 0, align 1

; Function Attrs: nounwind uwtable
define ptr @initialize_Init_Data_List_Nat_Sublist(i8 noundef zeroext %0, ptr noundef %1) #0 {
  %3 = alloca ptr, align 8
  %4 = alloca i8, align 1
  %5 = alloca ptr, align 8
  %6 = alloca ptr, align 8
  %7 = alloca i32, align 4
  store i8 %0, ptr %4, align 1, !tbaa !4
  store ptr %1, ptr %5, align 8, !tbaa !7
  call void @llvm.lifetime.start.p0(i64 8, ptr %6) #7
  %8 = load i8, ptr @_G_initialized, align 1, !tbaa !9, !range !11, !noundef !12
  %9 = trunc i8 %8 to i1
  br i1 %9, label %10, label %13

10:                                               ; preds = %2
  %11 = call ptr @lean_box(i64 noundef 0)
  %12 = call ptr @lean_io_result_mk_ok(ptr noundef %11)
  store ptr %12, ptr %3, align 8
  store i32 1, ptr %7, align 4
  br label %52

13:                                               ; preds = %2
  store i8 1, ptr @_G_initialized, align 1, !tbaa !9
  %14 = load i8, ptr %4, align 1, !tbaa !4
  %15 = call ptr @lean_io_mk_world()
  %16 = call ptr @initialize_Init_Data_List_Sublist(i8 noundef zeroext %14, ptr noundef %15)
  store ptr %16, ptr %6, align 8, !tbaa !7
  %17 = load ptr, ptr %6, align 8, !tbaa !7
  %18 = call zeroext i1 @lean_io_result_is_error(ptr noundef %17)
  br i1 %18, label %19, label %21

19:                                               ; preds = %13
  %20 = load ptr, ptr %6, align 8, !tbaa !7
  store ptr %20, ptr %3, align 8
  store i32 1, ptr %7, align 4
  br label %52

21:                                               ; preds = %13
  %22 = load ptr, ptr %6, align 8, !tbaa !7
  call void @lean_dec_ref(ptr noundef %22)
  %23 = load i8, ptr %4, align 1, !tbaa !4
  %24 = call ptr @lean_io_mk_world()
  %25 = call ptr @initialize_Init_Data_List_Nat_Basic(i8 noundef zeroext %23, ptr noundef %24)
  store ptr %25, ptr %6, align 8, !tbaa !7
  %26 = load ptr, ptr %6, align 8, !tbaa !7
  %27 = call zeroext i1 @lean_io_result_is_error(ptr noundef %26)
  br i1 %27, label %28, label %30

28:                                               ; preds = %21
  %29 = load ptr, ptr %6, align 8, !tbaa !7
  store ptr %29, ptr %3, align 8
  store i32 1, ptr %7, align 4
  br label %52

30:                                               ; preds = %21
  %31 = load ptr, ptr %6, align 8, !tbaa !7
  call void @lean_dec_ref(ptr noundef %31)
  %32 = load i8, ptr %4, align 1, !tbaa !4
  %33 = call ptr @lean_io_mk_world()
  %34 = call ptr @initialize_Init_Data_List_Nat_TakeDrop(i8 noundef zeroext %32, ptr noundef %33)
  store ptr %34, ptr %6, align 8, !tbaa !7
  %35 = load ptr, ptr %6, align 8, !tbaa !7
  %36 = call zeroext i1 @lean_io_result_is_error(ptr noundef %35)
  br i1 %36, label %37, label %39

37:                                               ; preds = %30
  %38 = load ptr, ptr %6, align 8, !tbaa !7
  store ptr %38, ptr %3, align 8
  store i32 1, ptr %7, align 4
  br label %52

39:                                               ; preds = %30
  %40 = load ptr, ptr %6, align 8, !tbaa !7
  call void @lean_dec_ref(ptr noundef %40)
  %41 = load i8, ptr %4, align 1, !tbaa !4
  %42 = call ptr @lean_io_mk_world()
  %43 = call ptr @initialize_Init_Data_Nat_Lemmas(i8 noundef zeroext %41, ptr noundef %42)
  store ptr %43, ptr %6, align 8, !tbaa !7
  %44 = load ptr, ptr %6, align 8, !tbaa !7
  %45 = call zeroext i1 @lean_io_result_is_error(ptr noundef %44)
  br i1 %45, label %46, label %48

46:                                               ; preds = %39
  %47 = load ptr, ptr %6, align 8, !tbaa !7
  store ptr %47, ptr %3, align 8
  store i32 1, ptr %7, align 4
  br label %52

48:                                               ; preds = %39
  %49 = load ptr, ptr %6, align 8, !tbaa !7
  call void @lean_dec_ref(ptr noundef %49)
  %50 = call ptr @lean_box(i64 noundef 0)
  %51 = call ptr @lean_io_result_mk_ok(ptr noundef %50)
  store ptr %51, ptr %3, align 8
  store i32 1, ptr %7, align 4
  br label %52

52:                                               ; preds = %48, %46, %37, %28, %19, %10
  call void @llvm.lifetime.end.p0(i64 8, ptr %6) #7
  %53 = load ptr, ptr %3, align 8
  ret ptr %53
}

; Function Attrs: nocallback nofree nosync nounwind willreturn memory(argmem: readwrite)
declare void @llvm.lifetime.start.p0(i64 immarg, ptr captures(none)) #1

; Function Attrs: inlinehint nounwind uwtable
define internal ptr @lean_io_result_mk_ok(ptr noundef %0) #2 {
  %2 = alloca ptr, align 8
  %3 = alloca ptr, align 8
  store ptr %0, ptr %2, align 8, !tbaa !7
  call void @llvm.lifetime.start.p0(i64 8, ptr %3) #7
  %4 = call ptr @lean_alloc_ctor(i32 noundef 0, i32 noundef 2, i32 noundef 0)
  store ptr %4, ptr %3, align 8, !tbaa !7
  %5 = load ptr, ptr %3, align 8, !tbaa !7
  %6 = load ptr, ptr %2, align 8, !tbaa !7
  call void @lean_ctor_set(ptr noundef %5, i32 noundef 0, ptr noundef %6)
  %7 = load ptr, ptr %3, align 8, !tbaa !7
  %8 = call ptr @lean_box(i64 noundef 0)
  call void @lean_ctor_set(ptr noundef %7, i32 noundef 1, ptr noundef %8)
  %9 = load ptr, ptr %3, align 8, !tbaa !7
  call void @llvm.lifetime.end.p0(i64 8, ptr %3) #7
  ret ptr %9
}

; Function Attrs: inlinehint nounwind uwtable
define internal ptr @lean_box(i64 noundef %0) #2 {
  %2 = alloca i64, align 8
  store i64 %0, ptr %2, align 8, !tbaa !13
  %3 = load i64, ptr %2, align 8, !tbaa !13
  %4 = shl i64 %3, 1
  %5 = or i64 %4, 1
  %6 = inttoptr i64 %5 to ptr
  ret ptr %6
}

declare ptr @initialize_Init_Data_List_Sublist(i8 noundef zeroext, ptr noundef) #3

; Function Attrs: inlinehint nounwind uwtable
define internal zeroext i1 @lean_io_result_is_error(ptr noundef %0) #2 {
  %2 = alloca ptr, align 8
  store ptr %0, ptr %2, align 8, !tbaa !7
  %3 = load ptr, ptr %2, align 8, !tbaa !7
  %4 = call zeroext i8 @lean_ptr_tag(ptr noundef %3)
  %5 = zext i8 %4 to i32
  %6 = icmp eq i32 %5, 1
  ret i1 %6
}

; Function Attrs: alwaysinline nounwind uwtable
define internal void @lean_dec_ref(ptr noundef %0) #4 {
  %2 = alloca ptr, align 8
  store ptr %0, ptr %2, align 8, !tbaa !7
  %3 = load ptr, ptr %2, align 8, !tbaa !7
  %4 = getelementptr inbounds nuw %struct.lean_object, ptr %3, i32 0, i32 0
  %5 = load i32, ptr %4, align 4, !tbaa !15
  %6 = icmp sgt i32 %5, 1
  %7 = zext i1 %6 to i32
  %8 = sext i32 %7 to i64
  %9 = call i64 @llvm.expect.i64(i64 %8, i64 1)
  %10 = icmp ne i64 %9, 0
  br i1 %10, label %11, label %16

11:                                               ; preds = %1
  %12 = load ptr, ptr %2, align 8, !tbaa !7
  %13 = getelementptr inbounds nuw %struct.lean_object, ptr %12, i32 0, i32 0
  %14 = load i32, ptr %13, align 4, !tbaa !15
  %15 = add i32 %14, -1
  store i32 %15, ptr %13, align 4, !tbaa !15
  br label %24

16:                                               ; preds = %1
  %17 = load ptr, ptr %2, align 8, !tbaa !7
  %18 = getelementptr inbounds nuw %struct.lean_object, ptr %17, i32 0, i32 0
  %19 = load i32, ptr %18, align 4, !tbaa !15
  %20 = icmp ne i32 %19, 0
  br i1 %20, label %21, label %23

21:                                               ; preds = %16
  %22 = load ptr, ptr %2, align 8, !tbaa !7
  call void @lean_dec_ref_cold(ptr noundef %22)
  br label %23

23:                                               ; preds = %21, %16
  br label %24

24:                                               ; preds = %23, %11
  ret void
}

declare ptr @initialize_Init_Data_List_Nat_Basic(i8 noundef zeroext, ptr noundef) #3

declare ptr @initialize_Init_Data_List_Nat_TakeDrop(i8 noundef zeroext, ptr noundef) #3

declare ptr @initialize_Init_Data_Nat_Lemmas(i8 noundef zeroext, ptr noundef) #3

; Function Attrs: nocallback nofree nosync nounwind willreturn memory(argmem: readwrite)
declare void @llvm.lifetime.end.p0(i64 immarg, ptr captures(none)) #1

; Function Attrs: inlinehint nounwind uwtable
define internal ptr @lean_alloc_ctor(i32 noundef %0, i32 noundef %1, i32 noundef %2) #2 {
  %4 = alloca i32, align 4
  %5 = alloca i32, align 4
  %6 = alloca i32, align 4
  %7 = alloca ptr, align 8
  store i32 %0, ptr %4, align 4, !tbaa !18
  store i32 %1, ptr %5, align 4, !tbaa !18
  store i32 %2, ptr %6, align 4, !tbaa !18
  call void @llvm.lifetime.start.p0(i64 8, ptr %7) #7
  %8 = load i32, ptr %5, align 4, !tbaa !18
  %9 = zext i32 %8 to i64
  %10 = mul i64 8, %9
  %11 = add i64 8, %10
  %12 = load i32, ptr %6, align 4, !tbaa !18
  %13 = zext i32 %12 to i64
  %14 = add i64 %11, %13
  %15 = trunc i64 %14 to i32
  %16 = call ptr @lean_alloc_ctor_memory(i32 noundef %15)
  store ptr %16, ptr %7, align 8, !tbaa !7
  %17 = load ptr, ptr %7, align 8, !tbaa !7
  %18 = load i32, ptr %4, align 4, !tbaa !18
  %19 = load i32, ptr %5, align 4, !tbaa !18
  call void @lean_set_st_header(ptr noundef %17, i32 noundef %18, i32 noundef %19)
  %20 = load ptr, ptr %7, align 8, !tbaa !7
  call void @llvm.lifetime.end.p0(i64 8, ptr %7) #7
  ret ptr %20
}

; Function Attrs: inlinehint nounwind uwtable
define internal void @lean_ctor_set(ptr noundef %0, i32 noundef %1, ptr noundef %2) #2 {
  %4 = alloca ptr, align 8
  %5 = alloca i32, align 4
  %6 = alloca ptr, align 8
  store ptr %0, ptr %4, align 8, !tbaa !7
  store i32 %1, ptr %5, align 4, !tbaa !18
  store ptr %2, ptr %6, align 8, !tbaa !7
  %7 = load ptr, ptr %6, align 8, !tbaa !7
  %8 = load ptr, ptr %4, align 8, !tbaa !7
  %9 = call ptr @lean_ctor_obj_cptr(ptr noundef %8)
  %10 = load i32, ptr %5, align 4, !tbaa !18
  %11 = zext i32 %10 to i64
  %12 = getelementptr inbounds nuw ptr, ptr %9, i64 %11
  store ptr %7, ptr %12, align 8, !tbaa !7
  ret void
}

; Function Attrs: inlinehint nounwind uwtable
define internal ptr @lean_alloc_ctor_memory(i32 noundef %0) #2 {
  %2 = alloca i32, align 4
  %3 = alloca i32, align 4
  %4 = alloca ptr, align 8
  %5 = alloca ptr, align 8
  store i32 %0, ptr %2, align 4, !tbaa !18
  call void @llvm.lifetime.start.p0(i64 4, ptr %3) #7
  %6 = load i32, ptr %2, align 4, !tbaa !18
  %7 = zext i32 %6 to i64
  %8 = call i64 @lean_align(i64 noundef %7, i64 noundef 8)
  %9 = trunc i64 %8 to i32
  store i32 %9, ptr %3, align 4, !tbaa !18
  call void @llvm.lifetime.start.p0(i64 8, ptr %4) #7
  %10 = load i32, ptr %2, align 4, !tbaa !18
  %11 = call ptr @lean_alloc_small_object(i32 noundef %10)
  store ptr %11, ptr %4, align 8, !tbaa !7
  %12 = load i32, ptr %3, align 4, !tbaa !18
  %13 = load i32, ptr %2, align 4, !tbaa !18
  %14 = icmp ugt i32 %12, %13
  br i1 %14, label %15, label %22

15:                                               ; preds = %1
  call void @llvm.lifetime.start.p0(i64 8, ptr %5) #7
  %16 = load ptr, ptr %4, align 8, !tbaa !7
  %17 = load i32, ptr %3, align 4, !tbaa !18
  %18 = zext i32 %17 to i64
  %19 = getelementptr inbounds nuw i8, ptr %16, i64 %18
  store ptr %19, ptr %5, align 8, !tbaa !19
  %20 = load ptr, ptr %5, align 8, !tbaa !19
  %21 = getelementptr inbounds i64, ptr %20, i64 -1
  store i64 0, ptr %21, align 8, !tbaa !13
  call void @llvm.lifetime.end.p0(i64 8, ptr %5) #7
  br label %22

22:                                               ; preds = %15, %1
  %23 = load ptr, ptr %4, align 8, !tbaa !7
  call void @llvm.lifetime.end.p0(i64 8, ptr %4) #7
  call void @llvm.lifetime.end.p0(i64 4, ptr %3) #7
  ret ptr %23
}

; Function Attrs: inlinehint nounwind uwtable
define internal void @lean_set_st_header(ptr noundef %0, i32 noundef %1, i32 noundef %2) #2 {
  %4 = alloca ptr, align 8
  %5 = alloca i32, align 4
  %6 = alloca i32, align 4
  store ptr %0, ptr %4, align 8, !tbaa !7
  store i32 %1, ptr %5, align 4, !tbaa !18
  store i32 %2, ptr %6, align 4, !tbaa !18
  %7 = load ptr, ptr %4, align 8, !tbaa !7
  %8 = getelementptr inbounds nuw %struct.lean_object, ptr %7, i32 0, i32 0
  store i32 1, ptr %8, align 4, !tbaa !15
  %9 = load i32, ptr %5, align 4, !tbaa !18
  %10 = load ptr, ptr %4, align 8, !tbaa !7
  %11 = getelementptr inbounds nuw %struct.lean_object, ptr %10, i32 0, i32 1
  %12 = load i32, ptr %11, align 4
  %13 = and i32 %9, 255
  %14 = shl i32 %13, 24
  %15 = and i32 %12, 16777215
  %16 = or i32 %15, %14
  store i32 %16, ptr %11, align 4
  %17 = load i32, ptr %6, align 4, !tbaa !18
  %18 = load ptr, ptr %4, align 8, !tbaa !7
  %19 = getelementptr inbounds nuw %struct.lean_object, ptr %18, i32 0, i32 1
  %20 = load i32, ptr %19, align 4
  %21 = and i32 %17, 255
  %22 = shl i32 %21, 16
  %23 = and i32 %20, -16711681
  %24 = or i32 %23, %22
  store i32 %24, ptr %19, align 4
  ret void
}

; Function Attrs: inlinehint nounwind uwtable
define internal i64 @lean_align(i64 noundef %0, i64 noundef %1) #2 {
  %3 = alloca i64, align 8
  %4 = alloca i64, align 8
  store i64 %0, ptr %3, align 8, !tbaa !13
  store i64 %1, ptr %4, align 8, !tbaa !13
  %5 = load i64, ptr %3, align 8, !tbaa !13
  %6 = load i64, ptr %4, align 8, !tbaa !13
  %7 = udiv i64 %5, %6
  %8 = load i64, ptr %4, align 8, !tbaa !13
  %9 = mul i64 %7, %8
  %10 = load i64, ptr %4, align 8, !tbaa !13
  %11 = load i64, ptr %3, align 8, !tbaa !13
  %12 = load i64, ptr %4, align 8, !tbaa !13
  %13 = urem i64 %11, %12
  %14 = icmp ne i64 %13, 0
  %15 = zext i1 %14 to i32
  %16 = sext i32 %15 to i64
  %17 = mul i64 %10, %16
  %18 = add i64 %9, %17
  ret i64 %18
}

; Function Attrs: inlinehint nounwind uwtable
define internal ptr @lean_alloc_small_object(i32 noundef %0) #2 {
  %2 = alloca i32, align 4
  %3 = alloca ptr, align 8
  %4 = alloca ptr, align 8
  store i32 %0, ptr %2, align 4, !tbaa !18
  call void @lean_inc_heartbeat()
  %5 = load i32, ptr %2, align 4, !tbaa !18
  %6 = zext i32 %5 to i64
  %7 = call i64 @lean_align(i64 noundef %6, i64 noundef 8)
  %8 = trunc i64 %7 to i32
  store i32 %8, ptr %2, align 4, !tbaa !18
  call void @llvm.lifetime.start.p0(i64 8, ptr %3) #7
  %9 = load i32, ptr %2, align 4, !tbaa !18
  %10 = zext i32 %9 to i64
  %11 = call noalias ptr @mi_malloc_small(i64 noundef %10)
  store ptr %11, ptr %3, align 8, !tbaa !7
  %12 = load ptr, ptr %3, align 8, !tbaa !7
  %13 = icmp eq ptr %12, null
  br i1 %13, label %14, label %15

14:                                               ; preds = %1
  call void @lean_internal_panic_out_of_memory() #8
  unreachable

15:                                               ; preds = %1
  call void @llvm.lifetime.start.p0(i64 8, ptr %4) #7
  %16 = load ptr, ptr %3, align 8, !tbaa !7
  store ptr %16, ptr %4, align 8, !tbaa !7
  %17 = load i32, ptr %2, align 4, !tbaa !18
  %18 = load ptr, ptr %4, align 8, !tbaa !7
  %19 = getelementptr inbounds nuw %struct.lean_object, ptr %18, i32 0, i32 1
  %20 = load i32, ptr %19, align 4
  %21 = and i32 %17, 65535
  %22 = and i32 %20, -65536
  %23 = or i32 %22, %21
  store i32 %23, ptr %19, align 4
  %24 = load ptr, ptr %4, align 8, !tbaa !7
  call void @llvm.lifetime.end.p0(i64 8, ptr %4) #7
  call void @llvm.lifetime.end.p0(i64 8, ptr %3) #7
  ret ptr %24
}

declare void @lean_inc_heartbeat() #3

declare noalias ptr @mi_malloc_small(i64 noundef) #3

; Function Attrs: noreturn
declare void @lean_internal_panic_out_of_memory() #5

; Function Attrs: inlinehint nounwind uwtable
define internal ptr @lean_ctor_obj_cptr(ptr noundef %0) #2 {
  %2 = alloca ptr, align 8
  store ptr %0, ptr %2, align 8, !tbaa !7
  %3 = load ptr, ptr %2, align 8, !tbaa !7
  %4 = call ptr @lean_to_ctor(ptr noundef %3)
  %5 = getelementptr inbounds nuw %struct.lean_ctor_object, ptr %4, i32 0, i32 1
  %6 = getelementptr inbounds [0 x ptr], ptr %5, i64 0, i64 0
  ret ptr %6
}

; Function Attrs: inlinehint nounwind uwtable
define internal ptr @lean_to_ctor(ptr noundef %0) #2 {
  %2 = alloca ptr, align 8
  store ptr %0, ptr %2, align 8, !tbaa !7
  %3 = load ptr, ptr %2, align 8, !tbaa !7
  ret ptr %3
}

; Function Attrs: inlinehint nounwind uwtable
define internal ptr @lean_io_mk_world() #2 {
  %1 = call ptr @lean_box(i64 noundef 0)
  ret ptr %1
}

; Function Attrs: inlinehint nounwind uwtable
define internal zeroext i8 @lean_ptr_tag(ptr noundef %0) #2 {
  %2 = alloca ptr, align 8
  store ptr %0, ptr %2, align 8, !tbaa !7
  %3 = load ptr, ptr %2, align 8, !tbaa !7
  %4 = getelementptr inbounds nuw %struct.lean_object, ptr %3, i32 0, i32 1
  %5 = load i32, ptr %4, align 4
  %6 = lshr i32 %5, 24
  %7 = trunc i32 %6 to i8
  ret i8 %7
}

; Function Attrs: nocallback nofree nosync nounwind willreturn memory(none)
declare i64 @llvm.expect.i64(i64, i64) #6

declare void @lean_dec_ref_cold(ptr noundef) #3


!llvm.module.flags = !{!0, !1, !2, !3}

!0 = !{i32 1, !"wchar_size", i32 4}
!1 = !{i32 4, !"probe-stack", !"inline-asm"}
!2 = !{i32 8, !"PIC Level", i32 2}
!3 = !{i32 7, !"uwtable", i32 2}
!4 = !{!5, !5, i64 0}
!5 = !{!"omnipotent char", !6, i64 0}
!6 = !{!"Simple C/C++ TBAA"}
!7 = !{!8, !8, i64 0}
!8 = !{!"any pointer", !5, i64 0}
!9 = !{!10, !10, i64 0}
!10 = !{!"_Bool", !5, i64 0}
!11 = !{i8 0, i8 2}
!12 = !{}
!13 = !{!14, !14, i64 0}
!14 = !{!"long", !5, i64 0}
!15 = !{!16, !17, i64 0}
!16 = !{!"", !17, i64 0, !17, i64 4, !17, i64 6, !17, i64 7}
!17 = !{!"int", !5, i64 0}
!18 = !{!17, !17, i64 0}
!19 = !{!20, !20, i64 0}
!20 = !{!"p1 long", !8, i64 0}
